target datalayout = "e-m:e-p270:32:32-p271:32:32-p272:64:64-i64:64-i128:128-f80:128-n8:16:32:64-S128"
target triple = "x86_64-pc-linux-gnu"

; Function Attrs: mustprogress uwtable
define dso_local i32 @stbi_write_png_to_func(ptr noundef %0, ptr noundef %1, i32 noundef %2, i32 noundef %3, i32 noundef %4, ptr noundef %5, i32 noundef %6) #2 {
  %8 = alloca i32, align 4
  %9 = alloca ptr, align 8
  %10 = alloca ptr, align 8
  %11 = alloca i32, align 4
  %12 = alloca i32, align 4
  %13 = alloca i32, align 4
  %14 = alloca ptr, align 8
  %15 = alloca i32, align 4
  %16 = alloca i32, align 4
  %17 = alloca ptr, align 8
  %18 = alloca i32, align 4
  store ptr %0, ptr %9, align 8, !tbaa !10
  store ptr %1, ptr %10, align 8, !tbaa !10
  store i32 %2, ptr %11, align 4, !tbaa !11
  store i32 %3, ptr %12, align 4, !tbaa !11
  store i32 %4, ptr %13, align 4, !tbaa !11
  store ptr %5, ptr %14, align 8, !tbaa !10
  store i32 %6, ptr %15, align 4, !tbaa !11
  call void @llvm.lifetime.start.p0(i64 4, ptr %16) #22
  call void @llvm.lifetime.start.p0(i64 8, ptr %17) #22
  %19 = load ptr, ptr %14, align 8, !tbaa !10
  %20 = load i32, ptr %15, align 4, !tbaa !11
  %21 = load i32, ptr %11, align 4, !tbaa !11
  %22 = load i32, ptr %12, align 4, !tbaa !11
  %23 = load i32, ptr %13, align 4, !tbaa !11
  %24 = call ptr @stbi_write_png_to_mem(ptr noundef %19, i32 noundef %20, i32 noundef %21, i32 noundef %22, i32 noundef %23, ptr noundef %16)
  store ptr %24, ptr %17, align 8, !tbaa !5
  %25 = load ptr, ptr %17, align 8, !tbaa !5
  %26 = icmp eq ptr %25, null
  br i1 %26, label %27, label %28

27:                                               ; preds = %7
  store i32 0, ptr %8, align 4
  store i32 1, ptr %18, align 4
  br label %34

28:                                               ; preds = %7
  %29 = load ptr, ptr %9, align 8, !tbaa !10
  %30 = load ptr, ptr %10, align 8, !tbaa !10
  %31 = load ptr, ptr %17, align 8, !tbaa !5
  %32 = load i32, ptr %16, align 4, !tbaa !11
  call void %29(ptr noundef %30, ptr noundef %31, i32 noundef %32)
  %33 = load ptr, ptr %17, align 8, !tbaa !5
  call void @free(ptr noundef %33) #22
  store i32 1, ptr %8, align 4
  store i32 1, ptr %18, align 4
  br label %34

34:                                               ; preds = %28, %27
  call void @llvm.lifetime.end.p0(i64 8, ptr %17) #22
  call void @llvm.lifetime.end.p0(i64 4, ptr %16) #22
  %35 = load i32, ptr %8, align 4
  ret i32 %35
}